(dp1
S'id_to_char'
p2
(dp3
I0
Ve
sI1
Vo
sI2
Vt
sI3
Vn
sI4
Va
sI5
Vr
sI6
Vi
sI7
Vh
sI8
Vs
sI9
Vl
sI10
Vd
sI11
Vu
sI12
Vc
sI13
Vm
sI14
Vf
sI15
VT
sI16
Vb
sI17
Vg
sI18
Vw
sI19
V.
sI20
Vy
sI21
VI
sI22
VA
sI23
VE
sI24
Vp
sI25
Vv
sI26
V*
sI27
VB
sI28
VS
sI29
V,
sI30
VC
sI31
VH
sI32
Vk
sI33
VO
sI34
VR
sI35
VN
sI36
VP
sI37
VV
sI38
VD
sI39
VL
sI40
VM
sI41
VG
sI42
V1
sI43
V:
sI44
Vj
sI45
V9
sI46
VF
sI47
VU
sI48
V-
sI49
V2
sI50
VX
sI51
VK
sI52
VW
sI53
VY
sI54
Vx
sI55
V"
sI56
V#
sI57
V'
sI58
V(
sI59
V)
sI60
V0
sI61
V6
sI62
VJ
sI63
V[
sI64
V]
sI65
V!
sI66
V5
sI67
V7
sI68
Vq
sI69
Vz
ssS'id_to_tag'
p4
(dp5
I0
VO
ssS'id_to_word'
p6
(dp7
I0
S'<UNK>'
p8
sI1
V.
sI2
Vthe
p9
sI3
Vof
p10
sI4
V,
sI5
VThe
p11
sI6
Vand
p12
sI7
Va
sI8
Vto
p13
sI9
V:
sI10
Vin
p14
sI11
VAdventure
p15
sI12
VI
sI13
Vhis
p16
sI14
VGutenberg
p17
sI15
VProject
p18
sI16
Vfor
p19
sI17
Vwas
p20
sI18
V**
p21
sI19
VHolmes
p22
sI20
Vnot
p23
sI21
Vor
p24
sI22
Vother
p25
sI23
Vthat
p26
sI24
VA
sI25
VArthur
p27
sI26
VBy
p28
sI27
VConan
p29
sI28
VDoyle
p30
sI29
VOF
p31
sI30
VSherlock
p32
sI31
VSir
p33
sI32
VTHE
p34
sI33
Vabout
p35
sI34
Vany
p36
sI35
Vbe
p37
sI36
Vbut
p38
sI37
Vby
p39
sI38
Vfile
p40
sI39
Vhow
p41
sI40
Vone
p42
sI41
Vseen
p43
sI42
Vthis
p44
sI43
Vwoman
p45
sI44
V'
sI45
V)
sI46
V***
p46
sI47
V*****
p47
sI48
V-
sI49
VADVENTURES
p48
sI50
VAdler
p49
sI51
VAdventures
p50
sI52
VEBook
p51
sI53
VHOLMES
p52
sI54
VHe
p53
sI55
VIrene
p54
sI56
VPlease
p55
sI57
VSHERLOCK
p56
sI58
VTo
p57
sI59
V[
sI60
V]
sI61
Vall
p58
sI62
Vas
p59
sI63
VeBook
p60
sI64
VeBooks
p61
sI65
Vemotion
p62
sI66
Vfrom
p63
sI67
Vhad
p64
sI68
Vhave
p65
sI69
Vhe
p66
sI70
Vheader
p67
sI71
Vher
p68
sI72
Vhim
p69
sI73
Vinformation
p70
sI74
Vis
p71
sI75
Vit
p72
sI76
Vlaws
p73
sI77
Vown
p74
sI78
Vs
sI79
Vshe
p75
sI80
Vsuch
p76
sI81
Vwere
p77
sI82
Vwith
p78
sI83
Vworld
p79
sI84
Vwould
p80
sI85
Vyour
p81
sI86
V!
sI87
V"
sI88
V#
sI89
V(
sI90
V(#
p82
sI91
V,"
p83
sI92
V--
p84
sI93
V12
p85
sI94
V15
p86
sI95
V1661
p87
sI96
V1971
p88
sI97
V1999
p89
sI98
V2002
p90
sI99
V29
p91
sI100
VADVENTURE
p92
sI101
VARTHUR
p93
sI102
VASCII
p94
sI103
VAdditional
p95
sI104
VAll
p96
sI105
VAnd
p97
sI106
VAuthor
p98
sI107
VBOHEMIA
p99
sI108
VBY
p100
sI109
VBachelor
p101
sI110
VBand
p102
sI111
VBe
p103
sI112
VBeeches
p104
sI113
VBeryl
p105
sI114
VBlue
p106
sI115
VBohemia
p107
sI116
VBoscombe
p108
sI117
VBoth
p109
sI118
VBut
p110
sI119
VCONAN
p111
sI120
VCONTENTS
p112
sI121
VCarbuncle
p113
sI122
VCase
p114
sI123
VCharacter
p115
sI124
VComputers
p116
sI125
VCopper
p117
sI126
VCopyright
p118
sI127
VCoronet
p119
sI128
VDOYLE
p120
sI129
VDate
p121
sI130
VDo
p122
sI131
VEBOOK
p123
sI132
VEdition
p124
sI133
VElectronic
p125
sI134
VEngineer
p126
sI135
VEnglish
p127
sI136
VFive
p128
sI137
VFree
p129
sI138
VGUTENBERG
p130
sI139
VGrit
p131
sI140
VHeaded
p132
sI141
VHumans
p133
sI142
VII
p134
sI143
VIII
p135
sI144
VIN
p136
sI145
VIV
p137
sI146
VIX
p138
sI147
VIdentity
p139
sI148
VIn
p140
sI149
VIncluded
p141
sI150
VIt
p142
sI151
VJose
p143
sI152
VLanguage
p144
sI153
VLeague
p145
sI154
VLip
p146
sI155
VMan
p147
sI156
VMarch
p148
sI157
VMenendez
p149
sI158
VMost
p150
sI159
VMy
p151
sI160
VMystery
p152
sI161
VNoble
p153
sI162
VNovember
p154
sI163
VOrange
p155
sI164
VPROJECT
p156
sI165
VPips
p157
sI166
VPlain
p158
sI167
VPrepared
p159
sI168
VReadable
p160
sI169
VRed
p161
sI170
VRelease
p162
sI171
VSCANDAL
p163
sI172
VSIR
p164
sI173
VSTART
p165
sI174
VScandal
p166
sI175
VSince
p167
sI176
VSpeckled
p168
sI177
VTexts
p169
sI178
VThese
p170
sI179
VThey
p171
sI180
VThis
p172
sI181
VThousands
p173
sI182
VThumb
p174
sI183
VTitle
p175
sI184
VTwisted
p176
sI185
VV
sI186
VVI
p177
sI187
VVII
p178
sI188
VVIII
p179
sI189
VValley
p180
sI190
VVanilla
p181
sI191
VVolunteers
p182
sI192
VWelcome
p183
sI193
VWere
p184
sI194
VWorld
p185
sI195
VX
sI196
VXI
p186
sI197
VXII
p187
sI198
VYou
p188
sI199
Vabhorrent
p189
sI200
Vactions
p190
sI201
Vadjusted
p191
sI202
Vadmirable
p192
sI203
Vadmirably
p193
sI204
Vadmit
p194
sI205
Vakin
p195
sI206
Valso
p196
sI207
Valways
p197
sI208
Vare
p198
sI209
Vat
p199
sI210
Vaway
p200
sI211
Vbalanced
p201
sI212
Vbefore
p202
sI213
Vbottom
p203
sI214
Vcan
p204
sI215
Vchange
p205
sI216
Vchanging
p206
sI217
Vcheck
p207
sI218
Vcold
p208
sI219
Vcopyright
p209
sI220
Vcountry
p210
sI221
Vcrack
p211
sI222
Vdelicate
p212
sI223
Vdistracting
p213
sI224
Vdisturbing
p214
sI225
Vdo
p215
sI226
Vdonation
p216
sI227
Vdoubt
p217
sI228
Vdownloading
p218
sI229
Vdrawing
p219
sI230
Vdrifted
p220
sI231
Vdubious
p221
sI232
Veach
p222
sI233
Veclipses
p223
sI234
Vedit
p224
sI235
Vediting
p225
sI236
Vemotions
p226
sI237
Vencoding
p227
sI238
Vexcellent
p228
sI239
Veyes
p229
sI240
Vfactor
p230
sI241
Vfalse
p231
sI242
Vfelt
p232
sI243
Vfind
p233
sI244
Vfinely
p234
sI245
Vfirst
p235
sI246
Vget
p236
sI247
Vgibe
p237
sI248
Vhas
p238
sI249
Vheard
p239
sI250
Vhigh
p240
sI251
Vhimself
p241
sI252
Vimportant
p242
sI253
Vinstrument
p243
sI254
Vinto
p244
sI255
Vintroduce
p245
sI256
Vintrusions
p246
sI257
Vinvolved
p247
sI258
Vlate
p248
sI259
Vlately
p249
sI260
Vlegal
p250
sI261
Vlenses
p251
sI262
Vlittle
p252
sI263
Vlove
p253
sI264
Vlover
p254
sI265
Vmachine
p255
sI266
Vmake
p256
sI267
Vmarriage
p257
sI268
Vmay
p258
sI269
Vmemory
p259
sI270
Vmen
p260
sI271
Vmental
p261
sI272
Vmention
p262
sI273
Vmight
p263
sI274
Vmind
p264
sI275
Vmore
p265
sI276
Vmost
p266
sI277
Vmotives
p267
sI278
Vname
p268
sI279
Vnature
p269
sI280
Vnever
p270
sI281
Vobserver
p271
sI282
Vobserving
p272
sI283
Vour
p273
sI284
Vout
p274
sI285
Vover
p275
sI286
Vparticularly
p276
sI287
Vpassions
p277
sI288
Vperfect
p278
sI289
Vpermission
p279
sI290
Vplaced
p280
sI291
Vposition
p281
sI292
Vpower
p282
sI293
Vprecise
p283
sI294
Vpredominates
p284
sI295
Vprint
p285
sI296
Vquestionable
p286
sI297
Vread
p287
sI298
Vreasoner
p288
sI299
Vreasoning
p289
sI300
Vrecently
p290
sI301
Vredistributing
p291
sI302
Vremove
p292
sI303
Vrestrictions
p293
sI304
Vresults
p294
sI305
Vrights
p295
sI306
Vsave
p296
sI307
Vseldom
p297
sI308
Vsensitive
p298
sI309
Vseries
p299
sI310
Vset
p300
sI311
Vsex
p301
sI312
Vshould
p302
sI313
Vsmall
p303
sI314
Vsneer
p304
sI315
Vsofter
p305
sI316
Vspecific
p306
sI317
Vspoke
p307
sI318
Vstrong
p308
sI319
Vsure
p309
sI320
Vtake
p310
sI321
Vtemperament
p311
sI322
Vthan
p312
sI323
Vthere
p313
sI324
Vthing
p314
sI325
Vthings
p315
sI326
Vthrow
p316
sI327
Vtrained
p317
sI328
Vunder
p318
sI329
Vupdated
p319
sI330
Vupon
p320
sI331
Vus
p321
sI332
Vused
p322
sI333
Vveil
p323
sI334
Vviewing
p324
sI335
Vwhen
p325
sI336
Vwhich
p326
sI337
Vwhole
p327
sI338
Vwithout
p328
sI339
Vwritten
p329
sI340
Vyet
p330
ss.